target datalayout = "e-m:e-p270:32:32-p271:32:32-p272:64:64-i64:64-i128:128-f80:128-n8:16:32:64-S128"
target triple = "x86_64-pc-linux-gnu"

%"class.duckdb_apache::thrift::TBase" = type { ptr }
%"class.duckdb::vector" = type { %"class.std::vector" }
%"class.std::vector" = type { %"struct.std::_Vector_base" }
%"struct.std::_Vector_base" = type { %"struct.std::_Vector_base<long, std::allocator<long>>::_Vector_impl" }
%"struct.std::_Vector_base<long, std::allocator<long>>::_Vector_impl" = type { %"struct.std::_Vector_base<long, std::allocator<long>>::_Vector_impl_data" }
%"struct.std::_Vector_base<long, std::allocator<long>>::_Vector_impl_data" = type { ptr, ptr, ptr }
%"class.duckdb_parquet::OffsetIndex" = type <{ %"class.duckdb_apache::thrift::TBase", %"class.duckdb::vector.48", %"class.duckdb::vector", %"struct.duckdb_parquet::_OffsetIndex__isset", [7 x i8] }>
%"class.duckdb::vector.48" = type { %"class.std::vector.49" }
%"class.std::vector.49" = type { %"struct.std::_Vector_base.50" }
%"struct.std::_Vector_base.50" = type { %"struct.std::_Vector_base<duckdb_parquet::PageLocation, std::allocator<duckdb_parquet::PageLocation>>::_Vector_impl" }
%"struct.std::_Vector_base<duckdb_parquet::PageLocation, std::allocator<duckdb_parquet::PageLocation>>::_Vector_impl" = type { %"struct.std::_Vector_base<duckdb_parquet::PageLocation, std::allocator<duckdb_parquet::PageLocation>>::_Vector_impl_data" }
%"struct.std::_Vector_base<duckdb_parquet::PageLocation, std::allocator<duckdb_parquet::PageLocation>>::_Vector_impl_data" = type { ptr, ptr, ptr }
%"struct.duckdb_parquet::_OffsetIndex__isset" = type { i8 }

; Function Attrs: inlinehint mustprogress uwtable
define linkonce_odr noundef nonnull align 8 dereferenceable(24) ptr @_ZN6duckdb6vectorIlLb1EEaSERKS1_(ptr noundef nonnull align 8 dereferenceable(24) %0, ptr noundef nonnull align 8 dereferenceable(24) %1) #5 comdat align 2 {
  %3 = alloca ptr, align 8
  %4 = alloca ptr, align 8
  store ptr %0, ptr %3, align 8, !tbaa !72
  store ptr %1, ptr %4, align 8, !tbaa !72
  %5 = load ptr, ptr %3, align 8
  %6 = load ptr, ptr %4, align 8, !tbaa !72
  %7 = call noundef nonnull align 8 dereferenceable(24) ptr @_ZNSt6vectorIlSaIlEEaSERKS1_(ptr noundef nonnull align 8 dereferenceable(24) %5, ptr noundef nonnull align 8 dereferenceable(24) %6)
  ret ptr %5
}

; Function Attrs: mustprogress uwtable
define void @_ZN14duckdb_parquet11OffsetIndex37__set_unencoded_byte_array_data_bytesERKN6duckdb6vectorIlLb1EEE(ptr noundef nonnull align 8 dereferenceable(57) %0, ptr noundef nonnull align 8 dereferenceable(24) %1) #2 align 2 {
  %3 = alloca ptr, align 8
  %4 = alloca ptr, align 8
  store ptr %0, ptr %3, align 8, !tbaa !533
  store ptr %1, ptr %4, align 8, !tbaa !72
  %5 = load ptr, ptr %3, align 8
  %6 = load ptr, ptr %4, align 8, !tbaa !72
  %7 = getelementptr inbounds nuw %"class.duckdb_parquet::OffsetIndex", ptr %5, i32 0, i32 2
  %8 = call noundef nonnull align 8 dereferenceable(24) ptr @_ZN6duckdb6vectorIlLb1EEaSERKS1_(ptr noundef nonnull align 8 dereferenceable(24) %7, ptr noundef nonnull align 8 dereferenceable(24) %6)
  %9 = getelementptr inbounds nuw %"class.duckdb_parquet::OffsetIndex", ptr %5, i32 0, i32 3
  %10 = load i8, ptr %9, align 8
  %11 = and i8 %10, -2
  %12 = or i8 %11, 1
  store i8 %12, ptr %9, align 8
  ret void
}